target datalayout = "e-m:e-p270:32:32-p271:32:32-p272:64:64-i64:64-i128:128-f80:128-n8:16:32:64-S128"
target triple = "x86_64-pc-linux-gnu"

%"struct.rocksdb::MallocStatus" = type { ptr, ptr }

@.str.1 = private unnamed_addr constant [3 x i8] c"%s\00", align 1

; Function Attrs: mustprogress nounwind uwtable
define internal void @_ZN7rocksdbL17GetJemallocStatusEPvPKc(ptr noundef %0, ptr noundef %1) #4 {
  %3 = alloca ptr, align 8
  %4 = alloca ptr, align 8
  %5 = alloca ptr, align 8
  %6 = alloca i64, align 8
  %7 = alloca i64, align 8
  %8 = alloca i32, align 4
  store ptr %0, ptr %3, align 8, !tbaa !18
  store ptr %1, ptr %4, align 8, !tbaa !17
  call void @llvm.lifetime.start.p0(i64 8, ptr %5) #14
  %9 = load ptr, ptr %3, align 8, !tbaa !18
  store ptr %9, ptr %5, align 8, !tbaa !19
  call void @llvm.lifetime.start.p0(i64 8, ptr %6) #14
  %10 = load ptr, ptr %4, align 8, !tbaa !17
  %11 = icmp ne ptr %10, null
  br i1 %11, label %12, label %15

12:                                               ; preds = %2
  %13 = load ptr, ptr %4, align 8, !tbaa !17
  %14 = call i64 @strlen(ptr noundef %13) #17
  br label %16

15:                                               ; preds = %2
  br label %16

16:                                               ; preds = %15, %12
  %17 = phi i64 [ %14, %12 ], [ 0, %15 ]
  store i64 %17, ptr %6, align 8, !tbaa !21
  call void @llvm.lifetime.start.p0(i64 8, ptr %7) #14
  %18 = load ptr, ptr %5, align 8, !tbaa !19
  %19 = getelementptr inbounds nuw %"struct.rocksdb::MallocStatus", ptr %18, i32 0, i32 1
  %20 = load ptr, ptr %19, align 8, !tbaa !14
  %21 = load ptr, ptr %5, align 8, !tbaa !19
  %22 = getelementptr inbounds nuw %"struct.rocksdb::MallocStatus", ptr %21, i32 0, i32 0
  %23 = load ptr, ptr %22, align 8, !tbaa !11
  %24 = ptrtoint ptr %20 to i64
  %25 = ptrtoint ptr %23 to i64
  %26 = sub i64 %24, %25
  store i64 %26, ptr %7, align 8, !tbaa !21
  %27 = load i64, ptr %6, align 8, !tbaa !21
  %28 = icmp ne i64 %27, 0
  br i1 %28, label %29, label %33

29:                                               ; preds = %16
  %30 = load i64, ptr %6, align 8, !tbaa !21
  %31 = load i64, ptr %7, align 8, !tbaa !21
  %32 = icmp ugt i64 %30, %31
  br i1 %32, label %33, label %34

33:                                               ; preds = %29, %16
  store i32 1, ptr %8, align 4
  br label %46

34:                                               ; preds = %29
  %35 = load ptr, ptr %5, align 8, !tbaa !19
  %36 = getelementptr inbounds nuw %"struct.rocksdb::MallocStatus", ptr %35, i32 0, i32 0
  %37 = load ptr, ptr %36, align 8, !tbaa !11
  %38 = load i64, ptr %7, align 8, !tbaa !21
  %39 = load ptr, ptr %4, align 8, !tbaa !17
  %40 = call i32 (ptr, i64, ptr, ...) @snprintf(ptr noundef %37, i64 noundef %38, ptr noundef @.str.1, ptr noundef %39) #14
  %41 = load i64, ptr %6, align 8, !tbaa !21
  %42 = load ptr, ptr %5, align 8, !tbaa !19
  %43 = getelementptr inbounds nuw %"struct.rocksdb::MallocStatus", ptr %42, i32 0, i32 0
  %44 = load ptr, ptr %43, align 8, !tbaa !11
  %45 = getelementptr inbounds nuw i8, ptr %44, i64 %41
  store ptr %45, ptr %43, align 8, !tbaa !11
  store i32 0, ptr %8, align 4
  br label %46

46:                                               ; preds = %34, %33
  call void @llvm.lifetime.end.p0(i64 8, ptr %7) #14
  call void @llvm.lifetime.end.p0(i64 8, ptr %6) #14
  call void @llvm.lifetime.end.p0(i64 8, ptr %5) #14
  %47 = load i32, ptr %8, align 4
  switch i32 %47, label %49 [
    i32 0, label %48
    i32 1, label %48
  ]

48:                                               ; preds = %46, %46
  ret void

49:                                               ; preds = %46
  unreachable
}